target datalayout = "e-m:e-p270:32:32-p271:32:32-p272:64:64-i64:64-i128:128-f80:128-n8:16:32:64-S128"
target triple = "x86_64-pc-linux-gnu"

%"class.lp::int_branch" = type { ptr, ptr }

; Function Attrs: mustprogress uwtable
define hidden noundef i32 @_ZN2lp10int_branch24find_inf_int_base_columnEv(ptr noundef nonnull align 8 dereferenceable(16) %0) #6 align 2 {
  %2 = alloca ptr, align 8
  store ptr %0, ptr %2, align 8, !tbaa !16
  %3 = load ptr, ptr %2, align 8
  %4 = getelementptr inbounds nuw %"class.lp::int_branch", ptr %3, i32 0, i32 0
  %5 = load ptr, ptr %4, align 8, !tbaa !30
  %6 = call noundef i32 @_ZN2lp10int_solver25select_int_infeasible_varEv(ptr noundef nonnull align 8 dereferenceable(32) %5)
  ret i32 %6
}

; Function Attrs: mustprogress uwtable
define hidden noundef i32 @_ZN2lp10int_branchclEv(ptr noundef nonnull align 8 dereferenceable(16) %0) #6 align 2 {
  %2 = alloca ptr, align 8
  %3 = alloca i32, align 4
  store ptr %0, ptr %2, align 8, !tbaa !16
  %4 = load ptr, ptr %2, align 8
  %5 = getelementptr inbounds nuw %"class.lp::int_branch", ptr %4, i32 0, i32 1
  %6 = load ptr, ptr %5, align 8, !tbaa !28
  call void @_ZN2lp10lar_solver32move_non_basic_columns_to_boundsEv(ptr noundef nonnull align 8 dereferenceable(2128) %6)
  call void @llvm.lifetime.start.p0(i64 4, ptr %3) #3
  %7 = call noundef i32 @_ZN2lp10int_branch24find_inf_int_base_columnEv(ptr noundef nonnull align 8 dereferenceable(16) %4)
  store i32 %7, ptr %3, align 4, !tbaa !8
  %8 = load i32, ptr %3, align 4, !tbaa !8
  %9 = icmp eq i32 %8, -1
  br i1 %9, label %10, label %11

10:                                               ; preds = %1
  br label %14

11:                                               ; preds = %1
  %12 = load i32, ptr %3, align 4, !tbaa !8
  %13 = call noundef i32 @_ZN2lp10int_branch23create_branch_on_columnEi(ptr noundef nonnull align 8 dereferenceable(16) %4, i32 noundef %12)
  br label %14

14:                                               ; preds = %11, %10
  %15 = phi i32 [ 0, %10 ], [ %13, %11 ]
  call void @llvm.lifetime.end.p0(i64 4, ptr %3) #3
  ret i32 %15
}