; Function Attrs: mustprogress uwtable
define hidden noundef range(i32 0, 2) i32 @_ZN2lp10int_branchclEv(ptr noundef nonnull readonly align 8 captures(none) dereferenceable(16) %0) local_unnamed_addr #5 align 2 {
  %2 = getelementptr inbounds nuw i8, ptr %0, i64 8
  %3 = load ptr, ptr %2, align 8, !tbaa !16
  tail call void @_ZN2lp10lar_solver32move_non_basic_columns_to_boundsEv(ptr noundef nonnull align 8 dereferenceable(2128) %3)
  %4 = load ptr, ptr %0, align 8, !tbaa !18
  %5 = tail call noundef i32 @_ZN2lp10int_solver25select_int_infeasible_varEv(ptr noundef nonnull align 8 dereferenceable(32) %4)
  %6 = icmp eq i32 %5, -1
  br i1 %6, label %9, label %7

7:                                                ; preds = %1
  %8 = tail call noundef i32 @_ZN2lp10int_branch23create_branch_on_columnEi(ptr noundef nonnull align 8 dereferenceable(16) %0, i32 noundef %5)
  br label %9

9:                                                ; preds = %1, %7
  %10 = phi i32 [ 1, %7 ], [ 0, %1 ]
  ret i32 %10
}